; Function Attrs: mustprogress nofree norecurse nosync nounwind willreturn memory(read, inaccessiblemem: none) uwtable
define hidden noundef zeroext i1 @_ZN7Compile28should_delay_string_inliningEP8ciMethodP8JVMState(ptr nocapture noundef nonnull readonly align 8 dereferenceable(2316) %0, ptr nocapture noundef readonly %1, ptr nocapture noundef readonly %2) local_unnamed_addr #2 align 2 {
  %4 = getelementptr inbounds i8, ptr %0, i64 126
  %5 = load i8, ptr %4, align 2
  %6 = trunc i8 %5 to i1
  br i1 %6, label %7, label %57

7:                                                ; preds = %3
  %8 = getelementptr inbounds i8, ptr %1, i64 40
  %9 = load ptr, ptr %8, align 8
  %10 = load ptr, ptr @_ZN5ciEnv20_StringBuilder_klassE, align 8
  %11 = icmp eq ptr %9, %10
  %12 = load ptr, ptr @_ZN5ciEnv19_StringBuffer_klassE, align 8
  %13 = icmp eq ptr %9, %12
  %or.cond = select i1 %11, i1 true, i1 %13
  br i1 %or.cond, label %14, label %21

14:                                               ; preds = %7
  %15 = getelementptr inbounds i8, ptr %2, i64 48
  %16 = load ptr, ptr %15, align 8
  %17 = getelementptr inbounds i8, ptr %16, i64 40
  %18 = load ptr, ptr %17, align 8
  %19 = icmp eq ptr %18, %10
  %20 = icmp eq ptr %18, %12
  %or.cond19 = select i1 %19, i1 true, i1 %20
  br i1 %or.cond19, label %57, label %21

21:                                               ; preds = %14, %7
  %22 = getelementptr inbounds i8, ptr %1, i64 84
  %23 = load i32, ptr %22, align 4
  switch i32 %23, label %56 [
    i32 378, label %57
    i32 379, label %57
    i32 380, label %57
    i32 381, label %57
    i32 382, label %57
    i32 383, label %57
    i32 384, label %57
    i32 385, label %57
    i32 386, label %57
    i32 387, label %57
    i32 388, label %57
    i32 389, label %57
    i32 390, label %57
    i32 391, label %57
    i32 392, label %57
    i32 393, label %24
  ]

24:                                               ; preds = %21
  %25 = getelementptr inbounds i8, ptr %2, i64 56
  %26 = load ptr, ptr %25, align 8
  %27 = getelementptr inbounds i8, ptr %2, i64 16
  %28 = load i32, ptr %27, align 8
  %29 = getelementptr inbounds i8, ptr %2, i64 32
  %30 = load i32, ptr %29, align 8
  %31 = add i32 %28, 1
  %32 = add i32 %31, %30
  %33 = getelementptr inbounds i8, ptr %26, i64 8
  %34 = load ptr, ptr %33, align 8
  %35 = zext i32 %32 to i64
  %36 = getelementptr inbounds ptr, ptr %34, i64 %35
  %37 = load ptr, ptr %36, align 8
  %38 = getelementptr inbounds i8, ptr %37, i64 44
  %39 = load i32, ptr %38, align 4
  %40 = and i32 %39, 15
  %41 = icmp eq i32 %40, 8
  br i1 %41, label %42, label %57

42:                                               ; preds = %24
  %43 = getelementptr inbounds i8, ptr %37, i64 8
  %44 = load ptr, ptr %43, align 8
  %45 = load ptr, ptr %44, align 8
  %46 = getelementptr inbounds i8, ptr %45, i64 44
  %47 = load i32, ptr %46, align 4
  %48 = and i32 %47, 31
  %49 = icmp eq i32 %48, 31
  br i1 %49, label %50, label %57

50:                                               ; preds = %42
  %51 = getelementptr inbounds i8, ptr %45, i64 136
  %52 = load ptr, ptr %51, align 8
  %.not = icmp eq ptr %52, null
  br i1 %.not, label %57, label %53

53:                                               ; preds = %50
  %54 = getelementptr inbounds i8, ptr %52, i64 84
  %55 = load i32, ptr %54, align 4
  %switch.selectcmp.case1 = icmp eq i32 %55, 391
  %switch.selectcmp.case2 = icmp eq i32 %55, 384
  %switch.selectcmp = or i1 %switch.selectcmp.case1, %switch.selectcmp.case2
  br label %57

56:                                               ; preds = %21
  br label %57

57:                                               ; preds = %24, %42, %50, %53, %3, %21, %21, %21, %21, %21, %21, %21, %21, %21, %21, %21, %21, %21, %21, %21, %14, %56
  %.0 = phi i1 [ false, %56 ], [ false, %14 ], [ true, %21 ], [ true, %21 ], [ true, %21 ], [ true, %21 ], [ true, %21 ], [ true, %21 ], [ true, %21 ], [ true, %21 ], [ true, %21 ], [ true, %21 ], [ true, %21 ], [ true, %21 ], [ true, %21 ], [ true, %21 ], [ true, %21 ], [ false, %3 ], [ %switch.selectcmp, %53 ], [ false, %50 ], [ false, %42 ], [ false, %24 ]
  ret i1 %.0
}